target datalayout = "e-m:e-p270:32:32-p271:32:32-p272:64:64-i64:64-i128:128-f80:128-n8:16:32:64-S128"
target triple = "x86_64-pc-linux-gnu"

%class.Sample = type { ptr, ptr, ptr, ptr, ptr, i8, float, float, float, float, float, float, float, float, float, float, float, float, float, i32, i8, i8, i8, ptr, [9 x ptr], ptr, %class.SampleDebugDraw }
%class.SampleDebugDraw = type { %class.DebugDrawGL }
%class.DebugDrawGL = type { %struct.duDebugDraw }
%struct.duDebugDraw = type { ptr }
%class.Sample_TempObstacles = type <{ %class.Sample, i8, [7 x i8], ptr, ptr, ptr, ptr, float, i32, i32, i32, i32, i32, i32, i32, float, [4 x i8] }>

; Function Attrs: mustprogress uwtable
define dso_local void @_ZN20Sample_TempObstacles12handleUpdateEf(ptr noundef nonnull align 8 dereferenceable(276) %0, float noundef %1) unnamed_addr #5 align 2 {
  %3 = alloca ptr, align 8
  %4 = alloca float, align 4
  store ptr %0, ptr %3, align 8
  store float %1, ptr %4, align 4
  %5 = load ptr, ptr %3, align 8
  %6 = load float, ptr %4, align 4
  call void @_ZN6Sample12handleUpdateEf(ptr noundef nonnull align 8 dereferenceable(200) %5, float noundef %6)
  %7 = getelementptr inbounds %class.Sample, ptr %5, i32 0, i32 2
  %8 = load ptr, ptr %7, align 8
  %9 = icmp ne ptr %8, null
  br i1 %9, label %11, label %10

10:                                               ; preds = %2
  br label %23

11:                                               ; preds = %2
  %12 = getelementptr inbounds %class.Sample_TempObstacles, ptr %5, i32 0, i32 6
  %13 = load ptr, ptr %12, align 8
  %14 = icmp ne ptr %13, null
  br i1 %14, label %16, label %15

15:                                               ; preds = %11
  br label %23

16:                                               ; preds = %11
  %17 = getelementptr inbounds %class.Sample_TempObstacles, ptr %5, i32 0, i32 6
  %18 = load ptr, ptr %17, align 8
  %19 = load float, ptr %4, align 4
  %20 = getelementptr inbounds %class.Sample, ptr %5, i32 0, i32 2
  %21 = load ptr, ptr %20, align 8
  %22 = call noundef i32 @_ZN11dtTileCache6updateEfP9dtNavMeshPb(ptr noundef nonnull align 8 dereferenceable(912) %18, float noundef %19, ptr noundef %21, ptr noundef null)
  br label %23

23:                                               ; preds = %16, %15, %10
  ret void
}