; Function Attrs: mustprogress uwtable
define dso_local void @_ZN20Sample_TempObstacles12handleUpdateEf(ptr noundef nonnull align 8 dereferenceable(276) %0, float noundef %1) unnamed_addr #5 align 2 {
  tail call void @_ZN6Sample12handleUpdateEf(ptr noundef nonnull align 8 dereferenceable(200) %0, float noundef %1)
  %3 = getelementptr inbounds i8, ptr %0, i64 16
  %4 = load ptr, ptr %3, align 8
  %.not = icmp eq ptr %4, null
  br i1 %.not, label %10, label %5

5:                                                ; preds = %2
  %6 = getelementptr inbounds i8, ptr %0, i64 232
  %7 = load ptr, ptr %6, align 8
  %.not4 = icmp eq ptr %7, null
  br i1 %.not4, label %10, label %8

8:                                                ; preds = %5
  %9 = tail call noundef i32 @_ZN11dtTileCache6updateEfP9dtNavMeshPb(ptr noundef nonnull align 8 dereferenceable(912) %7, float noundef %1, ptr noundef nonnull %4, ptr noundef null)
  br label %10

10:                                               ; preds = %5, %2, %8
  ret void
}